target datalayout = "e-m:e-p270:32:32-p271:32:32-p272:64:64-i64:64-i128:128-f80:128-n8:16:32:64-S128"
target triple = "x86_64-pc-linux-gnu"

%union.pthread_mutex_t = type { %struct.__pthread_mutex_s }
%struct.__pthread_mutex_s = type { i32, i32, i32, i32, i32, i16, i16, %struct.__pthread_internal_list }
%struct.__pthread_internal_list = type { ptr, ptr }
%struct.trig_mgr_info = type { i32, i16, i32, i16, ptr, ptr, i32, i32, i64, i32, i32, ptr, i8, ptr, ptr, i64 }

@trigger_list = dso_local global ptr null, align 8
@ctld_failure = dso_local global i8 0, align 1
@bu_ctld_failure = dso_local global i8 0, align 1
@db_failure = dso_local global i8 0, align 1
@dbd_failure = dso_local global i8 0, align 1
@trigger_mutex = internal global %union.pthread_mutex_t zeroinitializer, align 8
@.str.2 = private unnamed_addr constant [29 x i8] c"%s: pthread_mutex_lock(): %m\00", align 1
@.str.3 = private unnamed_addr constant [31 x i8] c"%s: pthread_mutex_unlock(): %m\00", align 1
@trigger_state_save.high_buffer_size = internal global i32 1048576, align 4
@.str.7 = private unnamed_addr constant [17 x i8] c"PROTOCOL_VERSION\00", align 1
@__func__.trigger_state_save = private unnamed_addr constant [19 x i8] c"trigger_state_save\00", align 1
@.str.8 = private unnamed_addr constant [14 x i8] c"trigger_state\00", align 1

; Function Attrs: nounwind uwtable
define internal void @_dump_trigger_state(ptr noundef %0, ptr noundef %1) #0 {
  %3 = alloca ptr, align 8
  %4 = alloca ptr, align 8
  %5 = alloca i32, align 4
  %6 = alloca i32, align 4
  store ptr %0, ptr %3, align 8
  store ptr %1, ptr %4, align 8
  %7 = load i8, ptr @ctld_failure, align 1
  %8 = load ptr, ptr %4, align 8
  call void @pack8(i8 noundef zeroext %7, ptr noundef %8)
  %9 = load i8, ptr @bu_ctld_failure, align 1
  %10 = load ptr, ptr %4, align 8
  call void @pack8(i8 noundef zeroext %9, ptr noundef %10)
  %11 = load i8, ptr @dbd_failure, align 1
  %12 = load ptr, ptr %4, align 8
  call void @pack8(i8 noundef zeroext %11, ptr noundef %12)
  %13 = load i8, ptr @db_failure, align 1
  %14 = load ptr, ptr %4, align 8
  call void @pack8(i8 noundef zeroext %13, ptr noundef %14)
  %15 = load ptr, ptr %3, align 8
  %16 = getelementptr inbounds nuw %struct.trig_mgr_info, ptr %15, i32 0, i32 1
  %17 = load i16, ptr %16, align 4
  %18 = load ptr, ptr %4, align 8
  call void @pack16(i16 noundef zeroext %17, ptr noundef %18)
  %19 = load ptr, ptr %3, align 8
  %20 = getelementptr inbounds nuw %struct.trig_mgr_info, ptr %19, i32 0, i32 2
  %21 = load i32, ptr %20, align 8
  %22 = load ptr, ptr %4, align 8
  call void @pack32(i32 noundef %21, ptr noundef %22)
  %23 = load ptr, ptr %3, align 8
  %24 = getelementptr inbounds nuw %struct.trig_mgr_info, ptr %23, i32 0, i32 3
  %25 = load i16, ptr %24, align 4
  %26 = load ptr, ptr %4, align 8
  call void @pack16(i16 noundef zeroext %25, ptr noundef %26)
  br label %27

27:                                               ; preds = %2
  call void @llvm.lifetime.start.p0(i64 4, ptr %5) #10
  store i32 0, ptr %5, align 4
  %28 = load ptr, ptr %3, align 8
  %29 = getelementptr inbounds nuw %struct.trig_mgr_info, ptr %28, i32 0, i32 14
  %30 = load ptr, ptr %29, align 8
  %31 = icmp ne ptr %30, null
  br i1 %31, label %32, label %39

32:                                               ; preds = %27
  %33 = load ptr, ptr %3, align 8
  %34 = getelementptr inbounds nuw %struct.trig_mgr_info, ptr %33, i32 0, i32 14
  %35 = load ptr, ptr %34, align 8
  %36 = call i64 @strlen(ptr noundef %35) #13
  %37 = trunc i64 %36 to i32
  %38 = add i32 %37, 1
  store i32 %38, ptr %5, align 4
  br label %39

39:                                               ; preds = %32, %27
  %40 = load ptr, ptr %3, align 8
  %41 = getelementptr inbounds nuw %struct.trig_mgr_info, ptr %40, i32 0, i32 14
  %42 = load ptr, ptr %41, align 8
  %43 = load i32, ptr %5, align 4
  %44 = load ptr, ptr %4, align 8
  call void @packmem(ptr noundef %42, i32 noundef %43, ptr noundef %44)
  call void @llvm.lifetime.end.p0(i64 4, ptr %5) #10
  br label %45

45:                                               ; preds = %39
  %46 = load ptr, ptr %3, align 8
  %47 = getelementptr inbounds nuw %struct.trig_mgr_info, ptr %46, i32 0, i32 7
  %48 = load i32, ptr %47, align 4
  %49 = load ptr, ptr %4, align 8
  call void @pack32(i32 noundef %48, ptr noundef %49)
  %50 = load ptr, ptr %3, align 8
  %51 = getelementptr inbounds nuw %struct.trig_mgr_info, ptr %50, i32 0, i32 15
  %52 = load i64, ptr %51, align 8
  %53 = load ptr, ptr %4, align 8
  call void @pack_time(i64 noundef %52, ptr noundef %53)
  %54 = load ptr, ptr %3, align 8
  %55 = getelementptr inbounds nuw %struct.trig_mgr_info, ptr %54, i32 0, i32 9
  %56 = load i32, ptr %55, align 8
  %57 = load ptr, ptr %4, align 8
  call void @pack32(i32 noundef %56, ptr noundef %57)
  %58 = load ptr, ptr %3, align 8
  %59 = getelementptr inbounds nuw %struct.trig_mgr_info, ptr %58, i32 0, i32 10
  %60 = load i32, ptr %59, align 4
  %61 = load ptr, ptr %4, align 8
  call void @pack32(i32 noundef %60, ptr noundef %61)
  br label %62

62:                                               ; preds = %45
  call void @llvm.lifetime.start.p0(i64 4, ptr %6) #10
  store i32 0, ptr %6, align 4
  %63 = load ptr, ptr %3, align 8
  %64 = getelementptr inbounds nuw %struct.trig_mgr_info, ptr %63, i32 0, i32 11
  %65 = load ptr, ptr %64, align 8
  %66 = icmp ne ptr %65, null
  br i1 %66, label %67, label %74

67:                                               ; preds = %62
  %68 = load ptr, ptr %3, align 8
  %69 = getelementptr inbounds nuw %struct.trig_mgr_info, ptr %68, i32 0, i32 11
  %70 = load ptr, ptr %69, align 8
  %71 = call i64 @strlen(ptr noundef %70) #13
  %72 = trunc i64 %71 to i32
  %73 = add i32 %72, 1
  store i32 %73, ptr %6, align 4
  br label %74

74:                                               ; preds = %67, %62
  %75 = load ptr, ptr %3, align 8
  %76 = getelementptr inbounds nuw %struct.trig_mgr_info, ptr %75, i32 0, i32 11
  %77 = load ptr, ptr %76, align 8
  %78 = load i32, ptr %6, align 4
  %79 = load ptr, ptr %4, align 8
  call void @packmem(ptr noundef %77, i32 noundef %78, ptr noundef %79)
  call void @llvm.lifetime.end.p0(i64 4, ptr %6) #10
  br label %80

80:                                               ; preds = %74
  %81 = load ptr, ptr %3, align 8
  %82 = getelementptr inbounds nuw %struct.trig_mgr_info, ptr %81, i32 0, i32 12
  %83 = load i8, ptr %82, align 8
  %84 = load ptr, ptr %4, align 8
  call void @pack8(i8 noundef zeroext %83, ptr noundef %84)
  ret void
}

; Function Attrs: nounwind uwtable
define dso_local i32 @trigger_state_save() #0 {
  %1 = alloca i32, align 4
  %2 = alloca ptr, align 8
  %3 = alloca ptr, align 8
  %4 = alloca ptr, align 8
  %5 = alloca i32, align 4
  %6 = alloca i32, align 4
  %7 = alloca i32, align 4
  call void @llvm.lifetime.start.p0(i64 4, ptr %1) #10
  store i32 0, ptr %1, align 4
  call void @llvm.lifetime.start.p0(i64 8, ptr %2) #10
  %8 = load i32, ptr @trigger_state_save.high_buffer_size, align 4
  %9 = call ptr @init_buf(i32 noundef %8)
  store ptr %9, ptr %2, align 8
  call void @llvm.lifetime.start.p0(i64 8, ptr %3) #10
  call void @llvm.lifetime.start.p0(i64 8, ptr %4) #10
  br label %10

10:                                               ; preds = %0
  call void @llvm.lifetime.start.p0(i64 4, ptr %5) #10
  store i32 0, ptr %5, align 4
  store i32 17, ptr %5, align 4
  %11 = load i32, ptr %5, align 4
  %12 = load ptr, ptr %2, align 8
  call void @packmem(ptr noundef @.str.7, i32 noundef %11, ptr noundef %12)
  call void @llvm.lifetime.end.p0(i64 4, ptr %5) #10
  br label %13

13:                                               ; preds = %10
  br label %14

14:                                               ; preds = %13
  %15 = load ptr, ptr %2, align 8
  call void @pack16(i16 noundef zeroext 11008, ptr noundef %15)
  %16 = call i64 @time(ptr noundef null) #10
  %17 = load ptr, ptr %2, align 8
  call void @pack_time(i64 noundef %16, ptr noundef %17)
  br label %18

18:                                               ; preds = %14
  call void @llvm.lifetime.start.p0(i64 4, ptr %6) #10
  %19 = call i32 @pthread_mutex_lock(ptr noundef @trigger_mutex) #10
  store i32 %19, ptr %6, align 4
  %20 = load i32, ptr %6, align 4
  %21 = icmp ne i32 %20, 0
  br i1 %21, label %22, label %25

22:                                               ; preds = %18
  %23 = load i32, ptr %6, align 4
  %24 = call ptr @__errno_location() #11
  store i32 %23, ptr %24, align 4
  call void (ptr, ...) @fatal_abort(ptr noundef @.str.2, ptr noundef @__func__.trigger_state_save) #12
  unreachable

25:                                               ; preds = %18
  call void @llvm.lifetime.end.p0(i64 4, ptr %6) #10
  br label %26

26:                                               ; preds = %25
  br label %27

27:                                               ; preds = %26
  %28 = load ptr, ptr @trigger_list, align 8
  %29 = icmp eq ptr %28, null
  br i1 %29, label %30, label %32

30:                                               ; preds = %27
  %31 = call ptr @list_create(ptr noundef @_trig_del)
  store ptr %31, ptr @trigger_list, align 8
  br label %32

32:                                               ; preds = %30, %27
  %33 = load ptr, ptr @trigger_list, align 8
  %34 = call ptr @list_iterator_create(ptr noundef %33)
  store ptr %34, ptr %3, align 8
  br label %35

35:                                               ; preds = %39, %32
  %36 = load ptr, ptr %3, align 8
  %37 = call ptr @list_next(ptr noundef %36)
  store ptr %37, ptr %4, align 8
  %38 = icmp ne ptr %37, null
  br i1 %38, label %39, label %42

39:                                               ; preds = %35
  %40 = load ptr, ptr %4, align 8
  %41 = load ptr, ptr %2, align 8
  call void @_dump_trigger_state(ptr noundef %40, ptr noundef %41)
  br label %35, !llvm.loop !19

42:                                               ; preds = %35
  %43 = load ptr, ptr %3, align 8
  call void @list_iterator_destroy(ptr noundef %43)
  br label %44

44:                                               ; preds = %42
  call void @llvm.lifetime.start.p0(i64 4, ptr %7) #10
  %45 = call i32 @pthread_mutex_unlock(ptr noundef @trigger_mutex) #10
  store i32 %45, ptr %7, align 4
  %46 = load i32, ptr %7, align 4
  %47 = icmp ne i32 %46, 0
  br i1 %47, label %48, label %51

48:                                               ; preds = %44
  %49 = load i32, ptr %7, align 4
  %50 = call ptr @__errno_location() #11
  store i32 %49, ptr %50, align 4
  call void (ptr, ...) @fatal_abort(ptr noundef @.str.3, ptr noundef @__func__.trigger_state_save) #12
  unreachable

51:                                               ; preds = %44
  call void @llvm.lifetime.end.p0(i64 4, ptr %7) #10
  br label %52

52:                                               ; preds = %51
  br label %53

53:                                               ; preds = %52
  %54 = load ptr, ptr %2, align 8
  %55 = call i32 @save_buf_to_state(ptr noundef @.str.8, ptr noundef %54, ptr noundef @trigger_state_save.high_buffer_size)
  store i32 %55, ptr %1, align 4
  br label %56

56:                                               ; preds = %53
  %57 = load ptr, ptr %2, align 8
  %58 = icmp ne ptr %57, null
  br i1 %58, label %59, label %61

59:                                               ; preds = %56
  %60 = load ptr, ptr %2, align 8
  call void @free_buf(ptr noundef %60)
  br label %61

61:                                               ; preds = %59, %56
  store ptr null, ptr %2, align 8
  br label %62

62:                                               ; preds = %61
  br label %63

63:                                               ; preds = %62
  %64 = load i32, ptr %1, align 4
  call void @llvm.lifetime.end.p0(i64 8, ptr %4) #10
  call void @llvm.lifetime.end.p0(i64 8, ptr %3) #10
  call void @llvm.lifetime.end.p0(i64 8, ptr %2) #10
  call void @llvm.lifetime.end.p0(i64 4, ptr %1) #10
  ret i32 %64
}