; Function Attrs: nounwind uwtable
define dso_local i32 @trigger_state_save() local_unnamed_addr #0 {
  %1 = load i32, ptr @trigger_state_save.high_buffer_size, align 4
  %2 = tail call ptr @init_buf(i32 noundef %1) #12
  tail call void @packmem(ptr noundef nonnull @.str.7, i32 noundef 17, ptr noundef %2) #12
  tail call void @pack16(i16 noundef zeroext 11008, ptr noundef %2) #12
  %3 = tail call i64 @time(ptr noundef null) #12
  tail call void @pack_time(i64 noundef %3, ptr noundef %2) #12
  %4 = tail call i32 @pthread_mutex_lock(ptr noundef nonnull @trigger_mutex) #12
  %.not = icmp eq i32 %4, 0
  br i1 %.not, label %7, label %5

5:                                                ; preds = %0
  %6 = tail call ptr @__errno_location() #13
  store i32 %4, ptr %6, align 4
  tail call void (ptr, ...) @fatal_abort(ptr noundef nonnull @.str.2, ptr noundef nonnull @__func__.trigger_state_save) #14
  unreachable

7:                                                ; preds = %0
  %8 = load ptr, ptr @trigger_list, align 8
  %9 = icmp eq ptr %8, null
  br i1 %9, label %10, label %12

10:                                               ; preds = %7
  %11 = tail call ptr @list_create(ptr noundef nonnull @_trig_del) #12
  store ptr %11, ptr @trigger_list, align 8
  br label %12

12:                                               ; preds = %10, %7
  %13 = phi ptr [ %11, %10 ], [ %8, %7 ]
  %14 = tail call ptr @list_iterator_create(ptr noundef %13) #12
  %15 = tail call ptr @list_next(ptr noundef %14) #12
  %.not1821 = icmp eq ptr %15, null
  br i1 %.not1821, label %._crit_edge, label %.lr.ph

.lr.ph:                                           ; preds = %12, %_dump_trigger_state.exit
  %16 = phi ptr [ %50, %_dump_trigger_state.exit ], [ %15, %12 ]
  %17 = load i8, ptr @ctld_failure, align 1
  tail call void @pack8(i8 noundef zeroext %17, ptr noundef %2) #12
  %18 = load i8, ptr @bu_ctld_failure, align 1
  tail call void @pack8(i8 noundef zeroext %18, ptr noundef %2) #12
  %19 = load i8, ptr @dbd_failure, align 1
  tail call void @pack8(i8 noundef zeroext %19, ptr noundef %2) #12
  %20 = load i8, ptr @db_failure, align 1
  tail call void @pack8(i8 noundef zeroext %20, ptr noundef %2) #12
  %21 = getelementptr inbounds nuw i8, ptr %16, i64 4
  %22 = load i16, ptr %21, align 4
  tail call void @pack16(i16 noundef zeroext %22, ptr noundef %2) #12
  %23 = getelementptr inbounds nuw i8, ptr %16, i64 8
  %24 = load i32, ptr %23, align 8
  tail call void @pack32(i32 noundef %24, ptr noundef %2) #12
  %25 = getelementptr inbounds nuw i8, ptr %16, i64 12
  %26 = load i16, ptr %25, align 4
  tail call void @pack16(i16 noundef zeroext %26, ptr noundef %2) #12
  %27 = getelementptr inbounds nuw i8, ptr %16, i64 80
  %28 = load ptr, ptr %27, align 8
  %.not.i = icmp eq ptr %28, null
  br i1 %.not.i, label %33, label %29

29:                                               ; preds = %.lr.ph
  %30 = tail call i64 @strlen(ptr noundef nonnull dereferenceable(1) %28) #15
  %31 = trunc i64 %30 to i32
  %32 = add i32 %31, 1
  br label %33

33:                                               ; preds = %29, %.lr.ph
  %.029.i = phi i32 [ %32, %29 ], [ 0, %.lr.ph ]
  tail call void @packmem(ptr noundef %28, i32 noundef %.029.i, ptr noundef %2) #12
  %34 = getelementptr inbounds nuw i8, ptr %16, i64 36
  %35 = load i32, ptr %34, align 4
  tail call void @pack32(i32 noundef %35, ptr noundef %2) #12
  %36 = getelementptr inbounds nuw i8, ptr %16, i64 88
  %37 = load i64, ptr %36, align 8
  tail call void @pack_time(i64 noundef %37, ptr noundef %2) #12
  %38 = getelementptr inbounds nuw i8, ptr %16, i64 48
  %39 = load i32, ptr %38, align 8
  tail call void @pack32(i32 noundef %39, ptr noundef %2) #12
  %40 = getelementptr inbounds nuw i8, ptr %16, i64 52
  %41 = load i32, ptr %40, align 4
  tail call void @pack32(i32 noundef %41, ptr noundef %2) #12
  %42 = getelementptr inbounds nuw i8, ptr %16, i64 56
  %43 = load ptr, ptr %42, align 8
  %.not32.i = icmp eq ptr %43, null
  br i1 %.not32.i, label %_dump_trigger_state.exit, label %44

44:                                               ; preds = %33
  %45 = tail call i64 @strlen(ptr noundef nonnull dereferenceable(1) %43) #15
  %46 = trunc i64 %45 to i32
  %47 = add i32 %46, 1
  br label %_dump_trigger_state.exit

_dump_trigger_state.exit:                         ; preds = %33, %44
  %.0.i = phi i32 [ %47, %44 ], [ 0, %33 ]
  tail call void @packmem(ptr noundef %43, i32 noundef %.0.i, ptr noundef %2) #12
  %48 = getelementptr inbounds nuw i8, ptr %16, i64 64
  %49 = load i8, ptr %48, align 8
  tail call void @pack8(i8 noundef zeroext %49, ptr noundef %2) #12
  %50 = tail call ptr @list_next(ptr noundef %14) #12
  %.not18 = icmp eq ptr %50, null
  br i1 %.not18, label %._crit_edge, label %.lr.ph, !llvm.loop !17

._crit_edge:                                      ; preds = %_dump_trigger_state.exit, %12
  tail call void @list_iterator_destroy(ptr noundef %14) #12
  %51 = tail call i32 @pthread_mutex_unlock(ptr noundef nonnull @trigger_mutex) #12
  %.not19 = icmp eq i32 %51, 0
  br i1 %.not19, label %54, label %52

52:                                               ; preds = %._crit_edge
  %53 = tail call ptr @__errno_location() #13
  store i32 %51, ptr %53, align 4
  tail call void (ptr, ...) @fatal_abort(ptr noundef nonnull @.str.3, ptr noundef nonnull @__func__.trigger_state_save) #14
  unreachable

54:                                               ; preds = %._crit_edge
  %55 = tail call i32 @save_buf_to_state(ptr noundef nonnull @.str.8, ptr noundef %2, ptr noundef nonnull @trigger_state_save.high_buffer_size) #12
  %.not20 = icmp eq ptr %2, null
  br i1 %.not20, label %57, label %56

56:                                               ; preds = %54
  tail call void @free_buf(ptr noundef nonnull %2) #12
  br label %57

57:                                               ; preds = %56, %54
  ret i32 %55
}